; Function Attrs: mustprogress uwtable
define void @_ZN11TransTableS3AddEiiPKtS1_RK13nodeCardsTypeb(ptr noundef nonnull align 8 dereferenceable(2396) %0, i32 noundef %1, i32 noundef %2, ptr nocapture noundef readonly %3, ptr nocapture noundef readonly %4, ptr nocapture noundef nonnull readonly align 1 dereferenceable(8) %5, i1 noundef zeroext %6) unnamed_addr #7 align 2 {
  %8 = getelementptr inbounds nuw i8, ptr %0, i64 2280
  %9 = sext i32 %1 to i64
  %10 = getelementptr inbounds [14 x i64], ptr %8, i64 0, i64 %9
  %11 = load i64, ptr %10, align 8
  tail call void @_ZN11TransTableS8BuildSOPEPKtS1_RK13nodeCardsTypexiib(ptr noundef nonnull align 8 dereferenceable(2396) %0, ptr noundef %4, ptr noundef %3, ptr noundef nonnull align 1 dereferenceable(8) %5, i64 noundef %11, i32 noundef %1, i32 noundef %2, i1 noundef zeroext %6)
  %12 = getelementptr inbounds nuw i8, ptr %0, i64 404
  %13 = load i8, ptr %12, align 4
  %14 = trunc i8 %13 to i1
  br i1 %14, label %15, label %19

15:                                               ; preds = %7
  %16 = load ptr, ptr %0, align 8
  %17 = getelementptr inbounds i8, ptr %16, i64 48
  %18 = load ptr, ptr %17, align 8
  tail call void %18(ptr noundef nonnull align 8 dereferenceable(2396) %0, i32 noundef 4)
  br label %19

19:                                               ; preds = %15, %7
  ret void
}